; Function Attrs: mustprogress nofree norecurse nounwind willreturn uwtable
define hidden void @_ZN3ade20MemoryDescriptorViewC2ERS0_RKNS_4util9DynMdSpanILm6EEE(ptr noundef nonnull writeonly align 8 captures(none) dereferenceable(96) initializes((0, 76), (80, 96)) %0, ptr noundef nonnull align 8 dereferenceable(96) %1, ptr noundef nonnull readonly align 8 captures(none) dereferenceable(56) %2) unnamed_addr #4 align 2 personality ptr @__gxx_personality_v0 {
  store ptr null, ptr %0, align 8, !tbaa !19
  %4 = getelementptr inbounds nuw i8, ptr %0, i64 8
  store ptr %1, ptr %4, align 8, !tbaa !20
  %5 = getelementptr inbounds nuw i8, ptr %0, i64 16
  tail call void @llvm.memcpy.p0.p0.i64(ptr noundef nonnull align 8 dereferenceable(56) %5, ptr noundef nonnull align 8 dereferenceable(56) %2, i64 56, i1 false), !tbaa.struct !21
  %6 = getelementptr inbounds nuw i8, ptr %0, i64 72
  %7 = getelementptr inbounds nuw i8, ptr %1, i64 72
  %8 = load i32, ptr %7, align 8, !tbaa !3
  store i32 %8, ptr %6, align 8, !tbaa !3
  %9 = getelementptr inbounds nuw i8, ptr %0, i64 80
  %10 = getelementptr inbounds nuw i8, ptr %1, i64 80
  %11 = load ptr, ptr %10, align 8, !tbaa !35
  store ptr %11, ptr %9, align 8, !tbaa !35
  %12 = getelementptr inbounds nuw i8, ptr %0, i64 88
  %13 = getelementptr inbounds nuw i8, ptr %1, i64 88
  %14 = load ptr, ptr %13, align 8, !tbaa !33
  store ptr %14, ptr %12, align 8, !tbaa !33
  %.not.i.i.i = icmp eq ptr %14, null
  br i1 %.not.i.i.i, label %_ZNSt10shared_ptrIN3ade20MemoryDescriptorView9ConnectorEEC2ERKS3_.exit, label %15

15:                                               ; preds = %3
  %16 = getelementptr inbounds nuw i8, ptr %14, i64 8
  %17 = load i8, ptr @__libc_single_threaded, align 1, !tbaa !22
  %.not.i.i.i.i = icmp eq i8 %17, 0
  br i1 %.not.i.i.i.i, label %21, label %18

18:                                               ; preds = %15
  %19 = load i32, ptr %16, align 4, !tbaa !36
  %20 = add nsw i32 %19, 1
  store i32 %20, ptr %16, align 4, !tbaa !36
  br label %_ZNSt10shared_ptrIN3ade20MemoryDescriptorView9ConnectorEEC2ERKS3_.exit

21:                                               ; preds = %15
  %22 = atomicrmw volatile add ptr %16, i32 1 acq_rel, align 4
  br label %_ZNSt10shared_ptrIN3ade20MemoryDescriptorView9ConnectorEEC2ERKS3_.exit

_ZNSt10shared_ptrIN3ade20MemoryDescriptorView9ConnectorEEC2ERKS3_.exit: ; preds = %3, %18, %21
  ret void
}